target datalayout = "e-m:e-p270:32:32-p271:32:32-p272:64:64-i64:64-i128:128-f80:128-n8:16:32:64-S128"
target triple = "x86_64-pc-linux-gnu"

%struct.quic_hdr_protector_st = type { ptr, ptr, ptr, ptr, i32 }

@.str = private unnamed_addr constant [12 x i8] c"AES-128-ECB\00", align 1
@.str.1 = private unnamed_addr constant [12 x i8] c"AES-256-ECB\00", align 1
@.str.2 = private unnamed_addr constant [9 x i8] c"ChaCha20\00", align 1
@.str.3 = private unnamed_addr constant [36 x i8] c"../openssl/ssl/quic/quic_wire_pkt.c\00", align 1
@__func__.ossl_quic_hdr_protector_init = private unnamed_addr constant [29 x i8] c"ossl_quic_hdr_protector_init\00", align 1

; Function Attrs: nounwind uwtable
define void @ossl_quic_hdr_protector_cleanup(ptr noundef %0) #0 {
  %2 = alloca ptr, align 8
  store ptr %0, ptr %2, align 8, !tbaa !3
  %3 = load ptr, ptr %2, align 8, !tbaa !3
  %4 = getelementptr inbounds nuw %struct.quic_hdr_protector_st, ptr %3, i32 0, i32 2
  %5 = load ptr, ptr %4, align 8, !tbaa !16
  call void @EVP_CIPHER_CTX_free(ptr noundef %5)
  %6 = load ptr, ptr %2, align 8, !tbaa !3
  %7 = getelementptr inbounds nuw %struct.quic_hdr_protector_st, ptr %6, i32 0, i32 2
  store ptr null, ptr %7, align 8, !tbaa !16
  %8 = load ptr, ptr %2, align 8, !tbaa !3
  %9 = getelementptr inbounds nuw %struct.quic_hdr_protector_st, ptr %8, i32 0, i32 3
  %10 = load ptr, ptr %9, align 8, !tbaa !20
  call void @EVP_CIPHER_free(ptr noundef %10)
  %11 = load ptr, ptr %2, align 8, !tbaa !3
  %12 = getelementptr inbounds nuw %struct.quic_hdr_protector_st, ptr %11, i32 0, i32 3
  store ptr null, ptr %12, align 8, !tbaa !20
  ret void
}

; Function Attrs: nounwind uwtable
define i32 @ossl_quic_hdr_protector_init(ptr noundef %0, ptr noundef %1, ptr noundef %2, i32 noundef %3, ptr noundef %4, i64 noundef %5) #0 {
  %7 = alloca i32, align 4
  %8 = alloca ptr, align 8
  %9 = alloca ptr, align 8
  %10 = alloca ptr, align 8
  %11 = alloca i32, align 4
  %12 = alloca ptr, align 8
  %13 = alloca i64, align 8
  %14 = alloca ptr, align 8
  %15 = alloca i32, align 4
  store ptr %0, ptr %8, align 8, !tbaa !3
  store ptr %1, ptr %9, align 8, !tbaa !8
  store ptr %2, ptr %10, align 8, !tbaa !10
  store i32 %3, ptr %11, align 4, !tbaa !12
  store ptr %4, ptr %12, align 8, !tbaa !10
  store i64 %5, ptr %13, align 8, !tbaa !14
  call void @llvm.lifetime.start.p0(i64 8, ptr %14) #7
  store ptr null, ptr %14, align 8, !tbaa !10
  %16 = load i32, ptr %11, align 4, !tbaa !12
  switch i32 %16, label %20 [
    i32 1, label %17
    i32 2, label %18
    i32 3, label %19
  ]

17:                                               ; preds = %6
  store ptr @.str, ptr %14, align 8, !tbaa !10
  br label %21

18:                                               ; preds = %6
  store ptr @.str.1, ptr %14, align 8, !tbaa !10
  br label %21

19:                                               ; preds = %6
  store ptr @.str.2, ptr %14, align 8, !tbaa !10
  br label %21

20:                                               ; preds = %6
  call void @ERR_new()
  call void @ERR_set_debug(ptr noundef @.str.3, i32 noundef 34, ptr noundef @__func__.ossl_quic_hdr_protector_init)
  call void (i32, i32, ptr, ...) @ERR_set_error(i32 noundef 20, i32 noundef 524556, ptr noundef null)
  store i32 0, ptr %7, align 4
  store i32 1, ptr %15, align 4
  br label %73

21:                                               ; preds = %19, %18, %17
  %22 = call ptr @EVP_CIPHER_CTX_new()
  %23 = load ptr, ptr %8, align 8, !tbaa !3
  %24 = getelementptr inbounds nuw %struct.quic_hdr_protector_st, ptr %23, i32 0, i32 2
  store ptr %22, ptr %24, align 8, !tbaa !16
  %25 = load ptr, ptr %8, align 8, !tbaa !3
  %26 = getelementptr inbounds nuw %struct.quic_hdr_protector_st, ptr %25, i32 0, i32 2
  %27 = load ptr, ptr %26, align 8, !tbaa !16
  %28 = icmp eq ptr %27, null
  br i1 %28, label %29, label %30

29:                                               ; preds = %21
  call void @ERR_new()
  call void @ERR_set_debug(ptr noundef @.str.3, i32 noundef 40, ptr noundef @__func__.ossl_quic_hdr_protector_init)
  call void (i32, i32, ptr, ...) @ERR_set_error(i32 noundef 20, i32 noundef 524294, ptr noundef null)
  store i32 0, ptr %7, align 4
  store i32 1, ptr %15, align 4
  br label %73

30:                                               ; preds = %21
  %31 = load ptr, ptr %9, align 8, !tbaa !8
  %32 = load ptr, ptr %14, align 8, !tbaa !10
  %33 = load ptr, ptr %10, align 8, !tbaa !10
  %34 = call ptr @EVP_CIPHER_fetch(ptr noundef %31, ptr noundef %32, ptr noundef %33)
  %35 = load ptr, ptr %8, align 8, !tbaa !3
  %36 = getelementptr inbounds nuw %struct.quic_hdr_protector_st, ptr %35, i32 0, i32 3
  store ptr %34, ptr %36, align 8, !tbaa !20
  %37 = load ptr, ptr %8, align 8, !tbaa !3
  %38 = getelementptr inbounds nuw %struct.quic_hdr_protector_st, ptr %37, i32 0, i32 3
  %39 = load ptr, ptr %38, align 8, !tbaa !20
  %40 = icmp eq ptr %39, null
  br i1 %40, label %49, label %41

41:                                               ; preds = %30
  %42 = load i64, ptr %13, align 8, !tbaa !14
  %43 = load ptr, ptr %8, align 8, !tbaa !3
  %44 = getelementptr inbounds nuw %struct.quic_hdr_protector_st, ptr %43, i32 0, i32 3
  %45 = load ptr, ptr %44, align 8, !tbaa !20
  %46 = call i32 @EVP_CIPHER_get_key_length(ptr noundef %45)
  %47 = sext i32 %46 to i64
  %48 = icmp ne i64 %42, %47
  br i1 %48, label %49, label %50

49:                                               ; preds = %41, %30
  call void @ERR_new()
  call void @ERR_set_debug(ptr noundef @.str.3, i32 noundef 47, ptr noundef @__func__.ossl_quic_hdr_protector_init)
  call void (i32, i32, ptr, ...) @ERR_set_error(i32 noundef 20, i32 noundef 524294, ptr noundef null)
  br label %71

50:                                               ; preds = %41
  %51 = load ptr, ptr %8, align 8, !tbaa !3
  %52 = getelementptr inbounds nuw %struct.quic_hdr_protector_st, ptr %51, i32 0, i32 2
  %53 = load ptr, ptr %52, align 8, !tbaa !16
  %54 = load ptr, ptr %8, align 8, !tbaa !3
  %55 = getelementptr inbounds nuw %struct.quic_hdr_protector_st, ptr %54, i32 0, i32 3
  %56 = load ptr, ptr %55, align 8, !tbaa !20
  %57 = load ptr, ptr %12, align 8, !tbaa !10
  %58 = call i32 @EVP_CipherInit_ex(ptr noundef %53, ptr noundef %56, ptr noundef null, ptr noundef %57, ptr noundef null, i32 noundef 1)
  %59 = icmp ne i32 %58, 0
  br i1 %59, label %61, label %60

60:                                               ; preds = %50
  call void @ERR_new()
  call void @ERR_set_debug(ptr noundef @.str.3, i32 noundef 53, ptr noundef @__func__.ossl_quic_hdr_protector_init)
  call void (i32, i32, ptr, ...) @ERR_set_error(i32 noundef 20, i32 noundef 524294, ptr noundef null)
  br label %71

61:                                               ; preds = %50
  %62 = load ptr, ptr %9, align 8, !tbaa !8
  %63 = load ptr, ptr %8, align 8, !tbaa !3
  %64 = getelementptr inbounds nuw %struct.quic_hdr_protector_st, ptr %63, i32 0, i32 0
  store ptr %62, ptr %64, align 8, !tbaa !21
  %65 = load ptr, ptr %10, align 8, !tbaa !10
  %66 = load ptr, ptr %8, align 8, !tbaa !3
  %67 = getelementptr inbounds nuw %struct.quic_hdr_protector_st, ptr %66, i32 0, i32 1
  store ptr %65, ptr %67, align 8, !tbaa !22
  %68 = load i32, ptr %11, align 4, !tbaa !12
  %69 = load ptr, ptr %8, align 8, !tbaa !3
  %70 = getelementptr inbounds nuw %struct.quic_hdr_protector_st, ptr %69, i32 0, i32 4
  store i32 %68, ptr %70, align 8, !tbaa !23
  store i32 1, ptr %7, align 4
  store i32 1, ptr %15, align 4
  br label %73

71:                                               ; preds = %60, %49
  %72 = load ptr, ptr %8, align 8, !tbaa !3
  call void @ossl_quic_hdr_protector_cleanup(ptr noundef %72)
  store i32 0, ptr %7, align 4
  store i32 1, ptr %15, align 4
  br label %73

73:                                               ; preds = %71, %61, %29, %20
  call void @llvm.lifetime.end.p0(i64 8, ptr %14) #7
  %74 = load i32, ptr %7, align 4
  ret i32 %74
}