; Function Attrs: nounwind uwtable
define range(i32 0, 2) i32 @ossl_quic_hdr_protector_init(ptr noundef captures(none) %0, ptr noundef %1, ptr noundef %2, i32 noundef %3, ptr noundef %4, i64 noundef %5) local_unnamed_addr #0 {
  %switch.tableidx = add i32 %3, -1
  %7 = icmp ult i32 %switch.tableidx, 3
  br i1 %7, label %switch.lookup, label %8

8:                                                ; preds = %6
  tail call void @ERR_new() #10
  tail call void @ERR_set_debug(ptr noundef nonnull @.str.3, i32 noundef 34, ptr noundef nonnull @__func__.ossl_quic_hdr_protector_init) #10
  tail call void (i32, i32, ptr, ...) @ERR_set_error(i32 noundef 20, i32 noundef 524556, ptr noundef null) #10
  br label %31

switch.lookup:                                    ; preds = %6
  %9 = zext nneg i32 %switch.tableidx to i64
  %switch.gep = getelementptr inbounds nuw [3 x ptr], ptr @switch.table.ossl_quic_hdr_protector_init, i64 0, i64 %9
  %switch.load = load ptr, ptr %switch.gep, align 8
  %10 = tail call ptr @EVP_CIPHER_CTX_new() #10
  %11 = getelementptr inbounds nuw i8, ptr %0, i64 16
  store ptr %10, ptr %11, align 8, !tbaa !3
  %12 = icmp eq ptr %10, null
  br i1 %12, label %13, label %14

13:                                               ; preds = %switch.lookup
  tail call void @ERR_new() #10
  tail call void @ERR_set_debug(ptr noundef nonnull @.str.3, i32 noundef 40, ptr noundef nonnull @__func__.ossl_quic_hdr_protector_init) #10
  tail call void (i32, i32, ptr, ...) @ERR_set_error(i32 noundef 20, i32 noundef 524294, ptr noundef null) #10
  br label %31

14:                                               ; preds = %switch.lookup
  %15 = tail call ptr @EVP_CIPHER_fetch(ptr noundef %1, ptr noundef nonnull %switch.load, ptr noundef %2) #10
  %16 = getelementptr inbounds nuw i8, ptr %0, i64 24
  store ptr %15, ptr %16, align 8, !tbaa !13
  %17 = icmp eq ptr %15, null
  br i1 %17, label %28, label %18

18:                                               ; preds = %14
  %19 = tail call i32 @EVP_CIPHER_get_key_length(ptr noundef nonnull %15) #10
  %20 = sext i32 %19 to i64
  %.not = icmp eq i64 %5, %20
  br i1 %.not, label %21, label %28

21:                                               ; preds = %18
  %22 = load ptr, ptr %11, align 8, !tbaa !3
  %23 = load ptr, ptr %16, align 8, !tbaa !13
  %24 = tail call i32 @EVP_CipherInit_ex(ptr noundef %22, ptr noundef %23, ptr noundef null, ptr noundef %4, ptr noundef null, i32 noundef 1) #10
  %.not22 = icmp eq i32 %24, 0
  br i1 %.not22, label %28, label %25

25:                                               ; preds = %21
  store ptr %1, ptr %0, align 8, !tbaa !14
  %26 = getelementptr inbounds nuw i8, ptr %0, i64 8
  store ptr %2, ptr %26, align 8, !tbaa !15
  %27 = getelementptr inbounds nuw i8, ptr %0, i64 32
  store i32 %3, ptr %27, align 8, !tbaa !16
  br label %31

28:                                               ; preds = %21, %14, %18
  %.sink = phi i32 [ 47, %18 ], [ 47, %14 ], [ 53, %21 ]
  tail call void @ERR_new() #10
  tail call void @ERR_set_debug(ptr noundef nonnull @.str.3, i32 noundef %.sink, ptr noundef nonnull @__func__.ossl_quic_hdr_protector_init) #10
  tail call void (i32, i32, ptr, ...) @ERR_set_error(i32 noundef 20, i32 noundef 524294, ptr noundef null) #10
  %29 = load ptr, ptr %11, align 8, !tbaa !3
  tail call void @EVP_CIPHER_CTX_free(ptr noundef %29) #10
  store ptr null, ptr %11, align 8, !tbaa !3
  %30 = load ptr, ptr %16, align 8, !tbaa !13
  tail call void @EVP_CIPHER_free(ptr noundef %30) #10
  store ptr null, ptr %16, align 8, !tbaa !13
  br label %31

31:                                               ; preds = %28, %25, %13, %8
  %.020 = phi i32 [ 0, %8 ], [ 0, %13 ], [ 0, %28 ], [ 1, %25 ]
  ret i32 %.020
}